; Function Attrs: mustprogress uwtable
define internal void @_ZN12_GLOBAL__N_131cmProjectDirectoryListGenerator15OnMatchesLoadedEv(ptr nocapture noundef nonnull readonly align 8 dereferenceable(56) %0) unnamed_addr #3 align 2 {
  %2 = getelementptr inbounds i8, ptr %0, i64 48
  %3 = load i32, ptr %2, align 8
  %.not = icmp eq i32 %3, 0
  br i1 %.not, label %11, label %4

4:                                                ; preds = %1
  %5 = getelementptr inbounds i8, ptr %0, i64 16
  %6 = load ptr, ptr %5, align 8
  %7 = getelementptr inbounds i8, ptr %0, i64 24
  %8 = load ptr, ptr %7, align 8
  %9 = getelementptr inbounds i8, ptr %0, i64 52
  %10 = load i32, ptr %9, align 4
  tail call void @_ZN20cmFindPackageCommand4SortEN9__gnu_cxx17__normal_iteratorIPNSt7__cxx1112basic_stringIcSt11char_traitsIcESaIcEEESt6vectorIS7_SaIS7_EEEESC_NS_13SortOrderTypeENS_17SortDirectionTypeE(ptr %6, ptr %8, i32 noundef %3, i32 noundef %10)
  br label %11

11:                                               ; preds = %4, %1
  ret void
}